-----BEGIN RSA PRIVATE KEY-----
Proc-Type: 4,ENCRYPTED
DEK-Info: DES-EDE3-CBC,A795250E541F4F74

TzNeevcEdjvoqsgJSW+KHGnMKeS1eU/HrhCGnTYHxJm1fsQBuD2VbAq9Kd0Qq2sx
yc84u/CJigKvlCOReOm5EZywWt6ayR+ssmdqQeHJYrBdPl7Gqc7dKwdpgQb7YY0A
xyOeDeDIYFvzuY+803fFfblErLq4tFzT84ACHTrvz3EJXCCM+Xw8I2aRxjYJY1Mw
QSc1iayQfXlRXnhWZUc9jSaTrXMCRjk3MlB0t0LFItF/ucLQ9qtmxk/fvODE6ILE
+UNWzxrMqpW44AMhi7toYYyDnd+kK247zMBWHBjhZeFVHQOX1xD2y1gDuWOk1RY5
H2ehHlBfwZZGbHoszjPJuFW4d0ByTFvmp/2Guk8DAeQn5wn8PAUUyHqZee6izlnB
IGx4SD+vSLtE/AO/pmxXHH5RfvkdFTLcxwPvyACpOniECmIlTZbtKLvP6tNobXGz
ecwz9zf32YlPDtMsF0HOUlmIUbq01jjqgsmmirpq45flQpf61Qfm5Ryj+vovE5qN
x8f6CJNUpGqqJLOf/YiRJ+t5dt6R6VeJXTipDNPQ/kyFsC/Pv8EAABsZ50RnBRgT
ILzIlMkAe+dnoBvzQUGADr/Ah5fTHNRnxDfB69Vy2mXDq0pA32EwBmuCg88uHKnx
DPUzgqu2NkQayecCzsmTXYq6h/vlCCxFc3iuirFOD8z0CJ6GatzgBTWZZHc/kn//
I+xGSZjcVUH5S2677ydWukNNXD4+4SRp3yvGyJE33wTEIVxz60dbe+nBlMnD6vSf
biuT5PKijZFfKCgRao5gcD0jwRhlZci3jGK7IoWpgoqF6Bj0glGtSTaOhZKnQ/Xd
Syj100X7mMX5+5XJwpc1ZAHAse3SpPhJoEnszhUFqfkbSso0Vcs3xqScr0/iUUeI
Clm30q4NS9POlOmZmq1ek8yysWBQJpcuRAoDddZbH0/2FXnD/H4XyruecWAZ8VHG
UhjS6kuHQZ9RvzFCBKfP3a/PhB3i6/19Vj/buF4pBGujRps8R+KXqmqd3EktPYk2
cN0Oo64Ss9azbTkKqYtyWMiFEVYY1L4Z6uB9NyZaa2YbPv3tjD0E3SLw4ijlAk2h
aPB7Zt1MFb0I+X9eZ/2Bdtm2hWzqiABBmFEHDvkqjw8AXHx1W3U3FpXz/ke6Ucdv
jX+dTu6d/HG5OPNV1p49JVChuea8QbCEJb34rBzrwraf55W/TFrtQkRys7P2dN0D
B5zCeQjTxkVKSEW3PVfLXZtvgiW4kRQEJIpjKbB2cZSeUS+5CCVTTSwHaXAtTzUp
leFbs3fxEX9rn6AsKF+kei3b3pe3D+kYgb/P1y6/iM5avy34I013/koISQS0vSDT
uwG4r2YJDs0HV729nt+jS2kkp5vO0B3nm1dF6czJtnap7GJT0TjBroQs40w35NlL
JPr9PUepI+pzIoPmuiykd3tEq4JbBxjM9MRbJ+W22pzTE+p9RgzE2ZqMALdeSECK
2tplkptjR0LeyWlXS3GhZWj5BzxWwVGCD6GXHdG0pYked4U7Zf/67J6rOhbbDW9/
dDU59/z8d4ytgVhGRfKzKUeSrcPAvxguKRSII3kgMwgMZXtw8T8VDw==
-----END RSA PRIVATE KEY-----

Certificate:
    Data:
        Version: 3 (0x2)
        Serial Number: 2953 (0xb89)
        Signature Algorithm: md5WithRSAEncryption
        Issuer: C=FR, ST=France, L=Paris, O=CVF, OU=SPG CA, CN=CVF SPG CA/emailAddress=sos-sms@cvf.fr
        Validity
            Not Before: Sep 10 00:00:00 2014 GMT
            Not After : Oct 21 10:00:00 2015 GMT
        Subject: C=FR, ST=France, O=Oberthur, CN=Jean-Marie Barbaroux
        Subject Public Key Info:
            Public Key Algorithm: rsaEncryption
            RSA Public Key: (2048 bit)
                Modulus (2048 bit):
                    00:c4:33:91:e2:dc:d9:96:5b:13:6c:9d:d9:cd:41:
                    94:88:9c:16:5a:54:b1:32:89:88:b8:93:a4:24:a3:
                    fa:11:eb:cf:6e:d0:26:ef:aa:e8:24:20:44:ef:89:
                    b7:34:bb:02:fc:ad:d3:83:fe:9c:f7:b7:9c:89:75:
                    b2:fd:67:05:02:01:ef:aa:dc:46:51:ee:49:6b:9e:
                    7e:ec:43:76:61:a7:03:50:a0:43:bd:10:04:05:9b:
                    64:66:f4:2e:a5:86:6d:46:a0:76:f2:fc:5e:0a:28:
                    70:59:2d:1d:bc:59:9d:bb:8a:7c:93:59:d7:3f:d4:
                    15:f9:34:4b:65:50:51:2a:ec:00:1a:a6:25:c9:29:
                    21:de:97:eb:bb:9b:04:e2:63:7c:65:5c:5a:5b:5a:
                    ba:0f:bd:14:51:89:82:b0:00:4f:2f:1d:03:07:a1:
                    8c:98:5f:b8:01:32:8a:03:75:bd:0b:2f:50:8f:87:
                    26:0f:ef:96:50:4a:70:60:fd:15:bf:41:33:f0:24:
                    66:9c:07:4d:2b:b3:48:ed:b4:35:d3:73:21:16:84:
                    cb:9b:66:38:97:5a:6c:71:9a:a5:e2:74:44:b3:09:
                    9b:df:1d:55:47:f0:91:79:03:ed:68:a7:d0:1c:be:
                    36:d1:4b:d5:78:33:e3:e0:c7:8f:8a:27:42:77:0c:
                    c7:e7
                Exponent: 65537 (0x10001)
        X509v3 extensions:
            X509v3 Basic Constraints: 
            CA:FALSE
            Netscape Comment: 
            OpenSSL Generated Certificate
            X509v3 Subject Key Identifier: 
            D6:19:38:4D:DF:20:3B:BD:C8:8A:B5:B8:32:57:BC:97:CF:2D:8E:BD
            X509v3 Authority Key Identifier: 
            keyid:E6:23:20:DE:D1:3A:40:C0:EA:98:B1:41:93:60:21:00:4A:18:30:EB
            DirName:/C=FR/ST=France/L=Paris/O=CVF/OU=SPG CA/CN=CVF SPG CA/emailAddress=sos-sms@cvf.fr
            serial:00

    Signature Algorithm: md5WithRSAEncryption
        5b:3f:df:fd:45:96:bf:de:bc:ff:57:2a:f7:5b:b9:54:50:a2:
        68:67:91:58:db:a5:2b:7e:71:96:1a:0a:38:28:14:18:32:d5:
        3f:9e:b6:e2:f2:a4:6c:8c:d3:d4:cc:98:2e:92:f7:de:b9:72:
        3a:7a:ba:11:76:aa:27:06:af:6d
-----BEGIN CERTIFICATE-----
MIIDmzCCA0WgAwIBAgICC4kwDQYJKoZIhvcNAQEEBQAwgYExCzAJBgNVBAYTAkZS
MQ8wDQYDVQQIEwZGcmFuY2UxDjAMBgNVBAcTBVBhcmlzMQwwCgYDVQQKEwNDVkYx
DzANBgNVBAsTBlNQRyBDQTETMBEGA1UEAxMKQ1ZGIFNQRyBDQTEdMBsGCSqGSIb3
DQEJARYOc29zLXNtc0BjdmYuZnIwHhcNMTQwOTEwMDAwMDAwWhcNMTUxMDIxMTAw
MDAwWjBQMQswCQYDVQQGEwJGUjEPMA0GA1UECBMGRnJhbmNlMREwDwYDVQQKEwhP
YmVydGh1cjEdMBsGA1UEAxMUSmVhbi1NYXJpZSBCYXJiYXJvdXgwggEiMA0GCSqG
SIb3DQEBAQUAA4IBDwAwggEKAoIBAQDEM5Hi3NmWWxNsndnNQZSInBZaVLEyiYi4
k6Qko/oR689u0CbvqugkIETvibc0uwL8rdOD/pz3t5yJdbL9ZwUCAe+q3EZR7klr
nn7sQ3ZhpwNQoEO9EAQFm2Rm9C6lhm1GoHby/F4KKHBZLR28WZ27inyTWdc/1BX5
NEtlUFEq7AAapiXJKSHel+u7mwTiY3xlXFpbWroPvRRRiYKwAE8vHQMHoYyYX7gB
MooDdb0LL1CPhyYP75ZQSnBg/RW/QTPwJGacB00rs0jttDXTcyEWhMubZjiXWmxx
mqXidESzCZvfHVVH8JF5A+1op9AcvjbRS9V4M+Pgx4+KJ0J3DMfnAgMBAAGjggEN
MIIBCTAJBgNVHRMEAjAAMCwGCWCGSAGG+EIBDQQfFh1PcGVuU1NMIEdlbmVyYXRl
ZCBDZXJ0aWZpY2F0ZTAdBgNVHQ4EFgQU1hk4Td8gO73IirW4Mle8l88tjr0wga4G
A1UdIwSBpjCBo4AU5iMg3tE6QMDqmLFBk2AhAEoYMOuhgYekgYQwgYExCzAJBgNV
BAYTAkZSMQ8wDQYDVQQIEwZGcmFuY2UxDjAMBgNVBAcTBVBhcmlzMQwwCgYDVQQK
EwNDVkYxDzANBgNVBAsTBlNQRyBDQTETMBEGA1UEAxMKQ1ZGIFNQRyBDQTEdMBsG
CSqGSIb3DQEJARYOc29zLXNtc0BjdmYuZnKCAQAwDQYJKoZIhvcNAQEEBQADQQBb
P9/9RZa/3rz/Vyr3W7lUUKJoZ5FY26UrfnGWGgo4KBQYMtU/nrbi8qRsjNPUzJgu
kvfeuXI6eroRdqonBq9t
-----END CERTIFICATE-----

