-----BEGIN RSA PRIVATE KEY-----
Proc-Type: 4,ENCRYPTED
DEK-Info: DES-EDE3-CBC,5E3E359DFE10AA8A
 
j3QZkEOVSapCs+RBal9XA78uxwFe/LD5GkfhRR8mB55Egawa6BHXG7I1abNiikgB
XmUuY00VLqZnn+QMXH5TUONM6Ezz2UQmyVtXNgXsWJFRcnxUmSuaeZvrrlLggF6Z
1R97+kCT6K02ej3z/rxtxwHCsCpq1NQlOcBSs1uRsKwrhXsiLYGnN996b9dOp1BY
u14L+yAx+gHGgs7QiLwsUvEsL7gV74hLsskKB0fR7R7NE+k/5wt3xN9fSctJy72H
Hk9nF+Owv3+cmqkpbUa3qwqCMCIMxvLe9c0eB3L0tyDd9SBug3P0MZ9l9QFZytL/
SBqyN0c/TWN0TpObUZhprQAtzoGSKmPvgIx5cR8/Vw7U/yTJ+rZE9fORG8kJhSo0
xWhfhSQ4HbaM05Q7TaJVQ+M/tvDUA6kSOJ15pWmHbdV4kQy6GRDJiexhXeQCscZX
FRARIEni7kKHOtSlz3chED6a3zQbQQtT2V9X/5UoOoNGXd3V294ba591OiQuD24s
PHY2wyMkX8by974bL18pqwH86K/qUNb+XVKHKGcnxzaISLBmzY1yXYmKFvgl92pF
yymDRPV1anV0/FMxPHkcxQoTMxtO9FwHymFJUujmqptI//d95gARJsEeuXB0zPr5
8ZdpQ/iVP13MEyFmv2xcr7ELOfxYWlgCElzdp+gpEr0Xqb/jwiuFLoree2ulnjz6
Qm/xpENFJA9L2LZpRh5d+8w9STPs2o86fsyLcsZCBtBNzTKwwN8NuN8BW9sFjoV0
c1zKDAg/gtmMqE7e7NEFioQWTa5TJ0Xn4AIXOuDOv1sU+s00AoM1N3k+eGY39Yqb
kgqN4BTMbfzbHICezXXb+f1J0BsUKAln4VQ5uDWdcmRO1BEa+iRv+F9GSv5cNeb9
rER9ULNcm/6PVAFOkFjSQ1G7VnprwSmskdHA6NPKHjTjc0XsXe6LarT5SYU6m/E+
QziP6ARdZGzgU8MZu70lo5La+a959Qc2zMXqkoEdI0akTWCZNp9FASpZE8P5I/ul
MFa0JQ+neOcesRw+e3iDHfOEaYjoF7e17OF3GAPyw3OoBjLCMMC8SC5hZ2mrQgD0
s5JJSB22/Wvnz4mIvQgEz/MM73lvNkatxIpUk+zNXsCw9FRmp31UjCB08Gv61vqK
4dCb/1piB7fjQHFRpuMNECHG90KEcixlGOlbhYWZU483eqnFzrDx3VbY+WGv3oMC
a4CFEl7GJFgiHaRp4J+RQcAhRltVLdjRgYN6tt23f1YDYOVp/IKeyhayN5NxsQq/
Z6gZNEFTuIFamrCTaFuArQFbMi2coXsx5IsR5h/qbriN8CkUDiwGmFdxdaPqblqz
czpsVtOP3qJ2xi/81/np/VdkPFxOYBCE1s5+DV3jwUrismQ+ID0OUi2cY/zez2W9
cBz1d2tqnQciY5ZyGPE8Oye6PCZAmSir6uoabnMEQ+xz6kL2sZw3ZzHyKmsWy9wr
03svqtLU0VvfFvmzGTYMRDhZvTv4svppAiDyoN/O+o6LJORo1rzIplF2BNcYcqVS
ItAjAnEJM75AO4b6+x0LfZUXL208oSiEQqKDWIkRUQDZTJ1Cl8crfg==
-----END RSA PRIVATE KEY-----

Certificate:
    Data:
        Version: 3 (0x2)
        Serial Number: 3169 (0xc61)
        Signature Algorithm: md5WithRSAEncryption
        Issuer: C=FR, ST=France, L=Paris, O=CVF, OU=SPG CA, CN=CVF SPG CA/emailAddress=sos-sms@cvf.fr
        Validity
            Not Before: Sep 16 00:00:00 2015 GMT
            Not After : Oct 26 10:00:00 2016 GMT
        Subject: C=FR, ST=France, O=Oberthur, CN=Jean-Marie Barbaroux
        Subject Public Key Info:
            Public Key Algorithm: rsaEncryption
            RSA Public Key: (2048 bit)
                Modulus (2048 bit):
                    00:c4:33:91:e2:dc:d9:96:5b:13:6c:9d:d9:cd:41:
                    94:88:9c:16:5a:54:b1:32:89:88:b8:93:a4:24:a3:
                    fa:11:eb:cf:6e:d0:26:ef:aa:e8:24:20:44:ef:89:
                    b7:34:bb:02:fc:ad:d3:83:fe:9c:f7:b7:9c:89:75:
                    b2:fd:67:05:02:01:ef:aa:dc:46:51:ee:49:6b:9e:
                    7e:ec:43:76:61:a7:03:50:a0:43:bd:10:04:05:9b:
                    64:66:f4:2e:a5:86:6d:46:a0:76:f2:fc:5e:0a:28:
                    70:59:2d:1d:bc:59:9d:bb:8a:7c:93:59:d7:3f:d4:
                    15:f9:34:4b:65:50:51:2a:ec:00:1a:a6:25:c9:29:
                    21:de:97:eb:bb:9b:04:e2:63:7c:65:5c:5a:5b:5a:
                    ba:0f:bd:14:51:89:82:b0:00:4f:2f:1d:03:07:a1:
                    8c:98:5f:b8:01:32:8a:03:75:bd:0b:2f:50:8f:87:
                    26:0f:ef:96:50:4a:70:60:fd:15:bf:41:33:f0:24:
                    66:9c:07:4d:2b:b3:48:ed:b4:35:d3:73:21:16:84:
                    cb:9b:66:38:97:5a:6c:71:9a:a5:e2:74:44:b3:09:
                    9b:df:1d:55:47:f0:91:79:03:ed:68:a7:d0:1c:be:
                    36:d1:4b:d5:78:33:e3:e0:c7:8f:8a:27:42:77:0c:
                    c7:e7
                Exponent: 65537 (0x10001)
        X509v3 extensions:
            X509v3 Basic Constraints: 
            CA:FALSE
            Netscape Comment: 
            OpenSSL Generated Certificate
            X509v3 Subject Key Identifier: 
            D6:19:38:4D:DF:20:3B:BD:C8:8A:B5:B8:32:57:BC:97:CF:2D:8E:BD
            X509v3 Authority Key Identifier: 
            keyid:E6:23:20:DE:D1:3A:40:C0:EA:98:B1:41:93:60:21:00:4A:18:30:EB
            DirName:/C=FR/ST=France/L=Paris/O=CVF/OU=SPG CA/CN=CVF SPG CA/emailAddress=sos-sms@cvf.fr
            serial:00

    Signature Algorithm: md5WithRSAEncryption
        6e:4a:d4:c1:7d:6f:ed:83:77:c0:1b:ae:49:97:a6:f7:52:94:
        29:d0:8b:f4:73:df:e4:40:c4:27:ca:ea:13:0d:9d:3c:59:4f:
        ef:c1:74:46:1b:ef:1a:a4:df:74:64:6d:a0:c6:7c:fa:72:da:
        0a:fc:6a:99:e0:77:01:cb:df:96
-----BEGIN CERTIFICATE-----
MIIDmzCCA0WgAwIBAgICDGEwDQYJKoZIhvcNAQEEBQAwgYExCzAJBgNVBAYTAkZS
MQ8wDQYDVQQIEwZGcmFuY2UxDjAMBgNVBAcTBVBhcmlzMQwwCgYDVQQKEwNDVkYx
DzANBgNVBAsTBlNQRyBDQTETMBEGA1UEAxMKQ1ZGIFNQRyBDQTEdMBsGCSqGSIb3
DQEJARYOc29zLXNtc0BjdmYuZnIwHhcNMTUwOTE2MDAwMDAwWhcNMTYxMDI2MTAw
MDAwWjBQMQswCQYDVQQGEwJGUjEPMA0GA1UECBMGRnJhbmNlMREwDwYDVQQKEwhP
YmVydGh1cjEdMBsGA1UEAxMUSmVhbi1NYXJpZSBCYXJiYXJvdXgwggEiMA0GCSqG
SIb3DQEBAQUAA4IBDwAwggEKAoIBAQDEM5Hi3NmWWxNsndnNQZSInBZaVLEyiYi4
k6Qko/oR689u0CbvqugkIETvibc0uwL8rdOD/pz3t5yJdbL9ZwUCAe+q3EZR7klr
nn7sQ3ZhpwNQoEO9EAQFm2Rm9C6lhm1GoHby/F4KKHBZLR28WZ27inyTWdc/1BX5
NEtlUFEq7AAapiXJKSHel+u7mwTiY3xlXFpbWroPvRRRiYKwAE8vHQMHoYyYX7gB
MooDdb0LL1CPhyYP75ZQSnBg/RW/QTPwJGacB00rs0jttDXTcyEWhMubZjiXWmxx
mqXidESzCZvfHVVH8JF5A+1op9AcvjbRS9V4M+Pgx4+KJ0J3DMfnAgMBAAGjggEN
MIIBCTAJBgNVHRMEAjAAMCwGCWCGSAGG+EIBDQQfFh1PcGVuU1NMIEdlbmVyYXRl
ZCBDZXJ0aWZpY2F0ZTAdBgNVHQ4EFgQU1hk4Td8gO73IirW4Mle8l88tjr0wga4G
A1UdIwSBpjCBo4AU5iMg3tE6QMDqmLFBk2AhAEoYMOuhgYekgYQwgYExCzAJBgNV
BAYTAkZSMQ8wDQYDVQQIEwZGcmFuY2UxDjAMBgNVBAcTBVBhcmlzMQwwCgYDVQQK
EwNDVkYxDzANBgNVBAsTBlNQRyBDQTETMBEGA1UEAxMKQ1ZGIFNQRyBDQTEdMBsG
CSqGSIb3DQEJARYOc29zLXNtc0BjdmYuZnKCAQAwDQYJKoZIhvcNAQEEBQADQQBu
StTBfW/tg3fAG65Jl6b3UpQp0Iv0c9/kQMQnyuoTDZ08WU/vwXRGG+8apN90ZG2g
xnz6ctoK/GqZ4HcBy9+W
-----END CERTIFICATE-----
